******************************************************************************
            TI ARM Clang Linker PC v4.0.4                      
******************************************************************************
>> Linked Mon Jul 13 19:42:09 2026

OUTPUT FILE NAME:   <diansaikaishi.out>
ENTRY POINT SYMBOL: "_c_int00_noargs"  address: 00004af9


MEMORY CONFIGURATION

         name            origin    length      used     unused   attr    fill
----------------------  --------  ---------  --------  --------  ----  --------
  FLASH                 00000000   00020000  00005958  0001a6a8  R  X
  SRAM                  20200000   00008000  00000377  00007c89  RW X
  BCR_CONFIG            41c00000   000000ff  00000000  000000ff  R   
  BSL_CONFIG            41c00100   00000080  00000000  00000080  R   


SEGMENT ALLOCATION MAP

run origin  load origin   length   init length attrs members
----------  ----------- ---------- ----------- ----- -------
00000000    00000000    00005958   00005958    r-x
  00000000    00000000    000000c0   000000c0    r-- .intvecs
  000000c0    000000c0    00004e50   00004e50    r-x .text
  00004f10    00004f10    00000a18   00000a18    r-- .rodata
  00005928    00005928    00000030   00000030    r-- .cinit
20200000    20200000    00000177   00000000    rw-
  20200000    20200000    00000176   00000000    rw- .bss
  20200176    20200176    00000001   00000000    rw- .data
20207e00    20207e00    00000200   00000000    rw-
  20207e00    20207e00    00000200   00000000    rw- .stack


SECTION ALLOCATION MAP

 output                                  attributes/
section   page    origin      length       input sections
--------  ----  ----------  ----------   ----------------
.intvecs   0    00000000    000000c0     
                  00000000    000000c0     startup_mspm0g350x_ticlang.o (.intvecs)

.text      0    000000c0    00004e50     
                  000000c0    000006f4     car_controller.o (.text.CarController_Update_20ms)
                  000007b4    00000670     oled_ui.o (.text.OledUi_Update_20ms)
                  00000e24    000002f0     imu.o (.text.mpu6050_read_regs)
                  00001114    000002d8     imu.o (.text.Imu_Init)
                  000013ec    00000254     oled.o (.text.OLED_Clear)
                  00001640    00000228     menu.o (.text.Menu_HandleKeyEvent)
                  00001868    00000224     app_config.o (.text.AppConfig_LimitAll)
                  00001a8c    00000214     imu.o (.text.Imu_CalibrateGyroBias)
                  00001ca0    00000208     motion_action.o (.text.MotionAction_Update_20ms)
                  00001ea8    000001f4     obstacle_scanner.o (.text.ObstacleScanner_Update_20ms)
                  0000209c    000001cc     imu.o (.text.imu_i2c_write_byte)
                  00002268    000001b8     oled.o (.text.oled_i2c_write_byte)
                  00002420    000001a0     ultrasonic.o (.text.Ultrasonic_Tick100us)
                  000025c0    00000174     key.o (.text.Key_Update_20ms)
                  00002734    00000160     heading_control.o (.text.HeadingControl_Update)
                  00002894    00000140     motion_action.o (.text.MotionAction_Start)
                  000029d4    0000013c     oled.o (.text.OLED_PrintInt16)
                  00002b10    00000134     imu.o (.text.Imu_Update)
                  00002c44    0000012c     imu.o (.text.imu_i2c_recover_bus)
                  00002d70    000000f8     mission_manager.o (.text.MissionManager_Update_20ms)
                  00002e68    000000f0     mission_manager.o (.text.MissionManager_SelectNext)
                  00002f58    000000ec     car_controller.o (.text.handle_turn_90)
                  00003044    000000d8     mission_manager.o (.text.MissionManager_SelectPrevious)
                  0000311c    000000d8     libclang_rt.builtins.a : addsf3.S.obj (.text)
                  000031f4    000000d4     app.o (.text.App_Update_20ms)
                  000032c8    000000d4     oled.o (.text.OLED_Init)
                  0000339c    000000d0     oled.o (.text.OLED_PrintChar)
                  0000346c    000000b0     motor.o (.text.Motor_SetSpeed)
                  0000351c    000000b0     ti_msp_dl_config.o (.text.SYSCFG_DL_GPIO_init)
                  000035cc    000000a2     libclang_rt.builtins.a : udivmoddi4.S.obj (.text)
                  0000366e    00000002     startup_mspm0g350x_ticlang.o (.text.Default_Handler)
                  00003670    0000009c     app_config.o (.text.AppConfig_InitDefault)
                  0000370c    0000009c     obstacle_monitor.o (.text.ObstacleMonitor_Update_20ms)
                  000037a8    0000009a     libc.a : memcpy16.S.obj (.text:memcpy)
                  00003842    00000002     track_sensor.o (.text.TrackSensor_Init)
                  00003844    00000098     car_controller.o (.text.CarController_StartSeekLine)
                  000038dc    00000098     imu.o (.text.mpu6050_write_reg)
                  00003974    00000094     car_controller.o (.text.CarController_StartDriveHeading)
                  00003a08    0000008c     libclang_rt.builtins.a : mulsf3.S.obj (.text.__mulsf3)
                  00003a94    00000088     car_controller.o (.text.CarController_StartTurnToYawRelative)
                  00003b1c    00000082     mission_library.o (.text.MissionLibrary_Validate)
                  00003b9e    00000002     libclang_rt.builtins.a : aeabi_div0.c.obj (.text.__aeabi_idiv0)
                  00003ba0    00000082                            : divsf3.S.obj (.text.__divsf3)
                  00003c22    00000002                            : aeabi_div0.c.obj (.text.__aeabi_ldiv0)
                  00003c24    0000007c     car_controller.o (.text.CarController_Init)
                  00003ca0    0000007c     car_controller.o (.text.CarController_ResetRuntime)
                  00003d1c    0000007c     car_controller.o (.text.CarController_StartFollowLine)
                  00003d98    0000007c     libc.a : copy_decompress_lzss.c.obj (.text:decompress:lzss)
                  00003e14    00000078     oled.o (.text.oled_write_command)
                  00003e8c    00000074     car_controller.o (.text.CarController_StartTurnRight90)
                  00003f00    00000070     car_controller.o (.text.CarController_StartTurnLeft90)
                  00003f70    0000006e     track_sensor.o (.text.TrackSensor_DetectTurn)
                  00003fde    00000002     --HOLE-- [fill = 0]
                  00003fe0    0000006c     encoder.o (.text.Encoder_HandleGpioInterrupt)
                  0000404c    0000006c     empty.o (.text.main)
                  000040b8    00000068     mission_manager.o (.text.MissionManager_GetSelectedMissionIndex)
                  00004120    00000066     track_sensor.o (.text.TrackSensor_GetErrorFromRaw)
                  00004186    00000002     --HOLE-- [fill = 0]
                  00004188    00000062     libclang_rt.builtins.a : aeabi_fcmp.S.obj (.text.__aeabi_fcmp)
                  000041ea    00000002     --HOLE-- [fill = 0]
                  000041ec    00000060     menu.o (.text.Menu_GetParamValue)
                  0000424c    0000005e     oled.o (.text.OLED_PrintBinary7)
                  000042aa    00000002     --HOLE-- [fill = 0]
                  000042ac    0000005c     ultrasonic.o (.text.Ultrasonic_Update_20ms)
                  00004308    0000005a     app.o (.text.App_Init)
                  00004362    00000002     --HOLE-- [fill = 0]
                  00004364    00000056     libclang_rt.builtins.a : aeabi_idivmod.S.obj (.text.__aeabi_idivmod)
                  000043ba    00000002     --HOLE-- [fill = 0]
                  000043bc    00000054     obstacle_safety.o (.text.ObstacleSafety_Update_20ms)
                  00004410    00000054     track_sensor.o (.text.TrackSensor_ReadRaw)
                  00004464    00000050     car_controller.o (.text.CarController_SetSafetyHold)
                  000044b4    00000050     motor.o (.text.Motor_PwmTick100us)
                  00004504    00000050     ultrasonic.o (.text.Ultrasonic_Init)
                  00004554    00000048     mission_manager.o (.text.MissionManager_Init)
                  0000459c    00000044     servo.o (.text.Servo_Tick100us)
                  000045e0    00000044     empty.o (.text.SysTick_Handler)
                  00004624    00000040     mission_manager.o (.text.MissionManager_Start)
                  00004664    00000040     ti_msp_dl_config.o (.text.SYSCFG_DL_SYSCTL_init)
                  000046a4    00000040     libclang_rt.builtins.a : aeabi_uidivmod.S.obj (.text.__aeabi_uidivmod)
                  000046e4    0000003e                            : divmoddi4.c.obj (.text.__divmoddi4)
                  00004722    00000002     --HOLE-- [fill = 0]
                  00004724    0000003c     servo.o (.text.Servo_SetAngleDeg)
                  00004760    0000003c     libclang_rt.builtins.a : floatsisf.S.obj (.text.__floatsisf)
                  0000479c    0000003c                            : comparesf2.S.obj (.text.__gtsf2)
                  000047d8    0000003c     libc.a : autoinit.c.obj (.text:__TI_auto_init_nobinit_nopinit)
                  00004814    0000003a     libclang_rt.builtins.a : comparesf2.S.obj (.text.__eqsf2)
                  0000484e    00000002     --HOLE-- [fill = 0]
                  00004850    0000003a                            : muldsi3.S.obj (.text.__muldsi3)
                  0000488a    00000002     --HOLE-- [fill = 0]
                  0000488c    00000038     motor.o (.text.Motor_Init)
                  000048c4    00000038     libclang_rt.builtins.a : fixsfsi.S.obj (.text.__fixsfsi)
                  000048fc    00000034     oled.o (.text.OLED_SetCursor)
                  00004930    00000032     oled.o (.text.OLED_PrintString)
                  00004962    00000002     --HOLE-- [fill = 0]
                  00004964    00000030     key.o (.text.Key_Init)
                  00004994    00000030     mission_manager.o (.text.MissionManager_Cancel)
                  000049c4    00000030     mission_manager.o (.text.MissionManager_Reset)
                  000049f4    00000030     obstacle_scanner.o (.text.ObstacleScanner_Init)
                  00004a24    0000002c     motor.o (.text.Motor_Stop)
                  00004a50    0000002c     ti_msp_dl_config.o (.text.SYSCFG_DL_initPower)
                  00004a7c    0000002c     track_sensor.o (.text.TrackSensor_CountBlack)
                  00004aa8    00000028     servo.o (.text.Servo_Init)
                  00004ad0    00000028     ultrasonic.o (.text.Ultrasonic_ResetFilter)
                  00004af8    00000028     libc.a : boot_cortex_m.c.obj (.text:_c_int00_noargs)
                  00004b20    00000024     encoder.o (.text.Encoder_Reset)
                  00004b44    00000020     car_controller.o (.text.CarController_Stop)
                  00004b64    00000020     mission_manager.o (.text.MissionManager_Pause)
                  00004b84    00000020     mission_manager.o (.text.MissionManager_Resume)
                  00004ba4    00000020     mission_manager.o (.text.mission_finish_error)
                  00004bc4    0000001e     libclang_rt.builtins.a : ashldi3.S.obj (.text.__ashldi3)
                  00004be2    00000002     --HOLE-- [fill = 0]
                  00004be4    0000001c     imu.o (.text.Imu_IsReady)
                  00004c00    0000001c     obstacle_monitor.o (.text.ObstacleMonitor_Init)
                  00004c1c    0000001c     obstacle_safety.o (.text.ObstacleSafety_Init)
                  00004c38    0000001c     obstacle_scanner.o (.text.ObstacleScanner_DirectionToString)
                  00004c54    00000018     car_controller.o (.text.CarController_RunModeToString)
                  00004c6c    00000018     heading_control.o (.text.HeadingControl_LockCurrentYaw)
                  00004c84    00000018     heading_control.o (.text.HeadingControl_SetTargetYaw)
                  00004c9c    00000018     menu.o (.text.Menu_ParamItemToString)
                  00004cb4    00000018     motion_action.o (.text.MotionAction_Cancel)
                  00004ccc    00000018     motion_action.o (.text.MotionAction_Init)
                  00004ce4    00000016     libc.a : copy_zero_init.c.obj (.text:decompress:ZI:__TI_zero_init_nomemset)
                  00004cfa    00000002     --HOLE-- [fill = 0]
                  00004cfc    00000014     empty.o (.text.GROUP1_IRQHandler)
                  00004d10    00000014     heading_control.o (.text.HeadingControl_Enable)
                  00004d24    00000014     heading_control.o (.text.HeadingControl_Init)
                  00004d38    00000014     heading_control.o (.text.HeadingControl_Reset)
                  00004d4c    00000014     menu.o (.text.Menu_Init)
                  00004d60    00000014     mission_library.o (.text.MissionLibrary_FindById)
                  00004d74    00000014     mission_library.o (.text.MissionLibrary_GetByIndex)
                  00004d88    00000014     mission_manager.o (.text.MissionManager_GetSelectedMissionId)
                  00004d9c    00000014     libclang_rt.builtins.a : aeabi_ldivmod.S.obj (.text.__aeabi_ldivmod)
                  00004db0    00000012     libc.a : copy_decompress_none.c.obj (.text:decompress:none)
                  00004dc2    00000002     --HOLE-- [fill = 0]
                  00004dc4    00000010     key.o (.text.Key_GetEvent)
                  00004dd4    00000010     ti_msp_dl_config.o (.text.SYSCFG_DL_init)
                  00004de4    0000000c     car_controller.o (.text.CarController_GetRunMode)
                  00004df0    0000000c     car_state.o (.text.CarState_Get)
                  00004dfc    0000000c     car_state.o (.text.CarState_Init)
                  00004e08    0000000c     car_state.o (.text.CarState_Set)
                  00004e14    0000000c     imu.o (.text.Imu_GetCorrectedGyroZDps)
                  00004e20    0000000c     imu.o (.text.Imu_GetYaw)
                  00004e2c    0000000c     imu.o (.text.Imu_ResetYaw)
                  00004e38    0000000c     menu.o (.text.Menu_GetPage)
                  00004e44    0000000c     menu.o (.text.Menu_GetParamItem)
                  00004e50    0000000c     mission_manager.o (.text.MissionManager_SetExternalHold)
                  00004e5c    0000000c     obstacle_safety.o (.text.ObstacleSafety_IsHolding)
                  00004e68    0000000c     oled_ui.o (.text.OledUi_Init)
                  00004e74    0000000a     driverlib.a : dl_common.o (.text.DL_Common_delayCycles)
                  00004e7e    0000000a     track_sensor.o (.text.TrackSensor_IsCenterDetected)
                  00004e88    0000000a     track_sensor.o (.text.TrackSensor_IsLineDetected)
                  00004e92    0000000a     track_sensor.o (.text.TrackSensor_IsLineLost)
                  00004e9c    00000008     car_controller.o (.text.CarController_GetFeedback)
                  00004ea4    00000008     heading_control.o (.text.HeadingControl_GetRuntime)
                  00004eac    00000008     imu.o (.text.Imu_GetRuntime)
                  00004eb4    00000008     mission_manager.o (.text.MissionManager_GetMissionCount)
                  00004ebc    00000008     mission_manager.o (.text.MissionManager_GetRuntime)
                  00004ec4    00000008     motion_action.o (.text.MotionAction_GetRuntime)
                  00004ecc    00000008     obstacle_monitor.o (.text.ObstacleMonitor_GetFeedback)
                  00004ed4    00000008     obstacle_scanner.o (.text.ObstacleScanner_GetFeedback)
                  00004edc    00000008     servo.o (.text.Servo_GetFeedback)
                  00004ee4    00000008     ultrasonic.o (.text.Ultrasonic_GetFeedback)
                  00004eec    00000008     libclang_rt.builtins.a : aeabi_memcpy.S.obj (.text.__aeabi_memcpy)
                  00004ef4    00000006     libc.a : exit.c.obj (.text:abort)
                  00004efa    00000004     libsysbm.a : hostexit.c.obj (.text.HOSTexit)
                  00004efe    00000004     mission_library.o (.text.MissionLibrary_GetCount)
                  00004f02    00000004     startup_mspm0g350x_ticlang.o (.text.Reset_Handler)
                  00004f06    00000004     libc.a : pre_init.c.obj (.text._system_pre_init)
                  00004f0a    00000006     --HOLE-- [fill = 0]

.cinit     0    00005928    00000030     
                  00005928    0000000c     (__TI_handler_table)
                  00005934    00000008     (.cinit..bss.load) [load image, compression = zero_init]
                  0000593c    00000005     (.cinit..data.load) [load image, compression = lzss]
                  00005941    00000003     --HOLE-- [fill = 0]
                  00005944    00000010     (__TI_cinit_table)
                  00005954    00000004     --HOLE-- [fill = 0]

.rodata    0    00004f10    00000a18     
                  00004f10    000000d8     oled.o (.rodata..Lswitch.table.OLED_PrintChar)
                  00004fe8    000000c0     mission_library.o (.rodata.g_missionRegistry)
                  000050a8    000000a8     mission_library.o (.rodata.g_missionMapA)
                  00005150    000000a8     mission_library.o (.rodata.g_missionMapB)
                  000051f8    00000090     mission_library.o (.rodata.g_missionTestReacquire)
                  00005288    00000078     mission_library.o (.rodata.g_missionMapC)
                  00005300    00000078     mission_library.o (.rodata.g_missionTestRight90Turn)
                  00005378    00000078     mission_library.o (.rodata.g_missionTestSeekFollow)
                  000053f0    00000060     mission_library.o (.rodata.g_missionTestYaw)
                  00005450    00000048     mission_library.o (.rodata.g_missionLegacy)
                  00005498    00000048     mission_library.o (.rodata.g_missionTestHeadingDrive)
                  000054e0    00000048     mission_library.o (.rodata.g_missionTestRight90Stop)
                  00005528    00000048     mission_library.o (.rodata.g_missionTestSeekThenFollow)
                  00005570    00000034     mission_library.o (.rodata..Lswitch.table.MissionLibrary_FindById)
                  000055a4    00000030     oled_ui.o (.rodata..Lswitch.table.OledUi_Update_20ms)
                  000055d4    00000030     mission_library.o (.rodata.g_missionTestSeekThenStop)
                  00005604    00000024     oled_ui.o (.rodata..Lswitch.table.OledUi_Update_20ms.66)
                  00005628    00000020     menu.o (.rodata..Lswitch.table.Menu_ParamItemToString)
                  00005648    0000001c     car_controller.o (.rodata..Lswitch.table.CarController_RunModeToString)
                  00005664    00000018     oled_ui.o (.rodata..Lswitch.table.OledUi_Update_20ms.67)
                  0000567c    00000010     obstacle_scanner.o (.rodata..Lswitch.table.ObstacleScanner_DirectionToString)
                  0000568c    0000000b     mission_library.o (.rodata.str1.1440970855772709381.1)
                  00005697    0000000a     mission_library.o (.rodata.str1.11682660667400632204.1)
                  000056a1    0000000a     mission_library.o (.rodata.str1.15604890807705439409.1)
                  000056ab    0000000a     mission_library.o (.rodata.str1.4392264057376583881.1)
                  000056b5    00000009     mission_library.o (.rodata.str1.15668266851434757964.1)
                  000056be    00000009     mission_library.o (.rodata.str1.1642528554392422750.1)
                  000056c7    00000009     oled_ui.o (.rodata.str1.18266126048138325213.1)
                  000056d0    00000009     mission_library.o (.rodata.str1.4251661066630729623.1)
                  000056d9    00000008     mission_library.o (.rodata.str1.13636476544574750902.1)
                  000056e1    00000007     oled_ui.o (.rodata.str1.14358698208395374265.1)
                  000056e8    00000007     mission_library.o (.rodata.str1.199678142196697465.1)
                  000056ef    00000007     oled_ui.o (.rodata.str1.9544068167406571052.1)
                  000056f6    00000006     mission_library.o (.rodata.str1.10039516787862681314.1)
                  000056fc    00000006     oled_ui.o (.rodata.str1.12983537867572525563.1)
                  00005702    00000006     oled_ui.o (.rodata.str1.1445687256832830955.1)
                  00005708    00000006     oled_ui.o (.rodata.str1.15008238333949226094.1)
                  0000570e    00000006     oled_ui.o (.rodata.str1.15829239520183577662.1)
                  00005714    00000006     oled_ui.o (.rodata.str1.17540787658903907660.1)
                  0000571a    00000006     oled_ui.o (.rodata.str1.5965450730569173784.1)
                  00005720    00000006     mission_library.o (.rodata.str1.842268438279787774.1)
                  00005726    00000006     mission_library.o (.rodata.str1.8714982518355203214.1)
                  0000572c    00000006     oled_ui.o (.rodata.str1.9102528229756940648.1)
                  00005732    00000006     oled_ui.o (.rodata.str1.9611283282870761829.1)
                  00005738    00000005     oled.o (.rodata.oled_get_glyph.colon)
                  0000573d    00000005     oled.o (.rodata.oled_get_glyph.eight)
                  00005742    00000005     oled.o (.rodata.oled_get_glyph.five)
                  00005747    00000005     oled.o (.rodata.oled_get_glyph.four)
                  0000574c    00000005     oled.o (.rodata.oled_get_glyph.glyphA)
                  00005751    00000005     oled.o (.rodata.oled_get_glyph.glyphB)
                  00005756    00000005     oled.o (.rodata.oled_get_glyph.glyphC)
                  0000575b    00000005     oled.o (.rodata.oled_get_glyph.glyphD)
                  00005760    00000005     oled.o (.rodata.oled_get_glyph.glyphE)
                  00005765    00000005     oled.o (.rodata.oled_get_glyph.glyphG)
                  0000576a    00000005     oled.o (.rodata.oled_get_glyph.glyphH)
                  0000576f    00000005     oled.o (.rodata.oled_get_glyph.glyphI)
                  00005774    00000005     oled.o (.rodata.oled_get_glyph.glyphK)
                  00005779    00000005     oled.o (.rodata.oled_get_glyph.glyphL)
                  0000577e    00000005     oled.o (.rodata.oled_get_glyph.glyphM)
                  00005783    00000005     oled.o (.rodata.oled_get_glyph.glyphN)
                  00005788    00000005     oled.o (.rodata.oled_get_glyph.glyphO)
                  0000578d    00000005     oled.o (.rodata.oled_get_glyph.glyphP)
                  00005792    00000005     oled.o (.rodata.oled_get_glyph.glyphR)
                  00005797    00000005     oled.o (.rodata.oled_get_glyph.glyphS)
                  0000579c    00000005     oled.o (.rodata.oled_get_glyph.glyphT)
                  000057a1    00000005     oled.o (.rodata.oled_get_glyph.glyphU)
                  000057a6    00000005     oled.o (.rodata.oled_get_glyph.glyphV)
                  000057ab    00000005     oled.o (.rodata.oled_get_glyph.glyphW)
                  000057b0    00000005     oled.o (.rodata.oled_get_glyph.glyphX)
                  000057b5    00000005     oled.o (.rodata.oled_get_glyph.glyphY)
                  000057ba    00000005     oled.o (.rodata.oled_get_glyph.glyphb)
                  000057bf    00000005     oled.o (.rodata.oled_get_glyph.gt)
                  000057c4    00000005     oled.o (.rodata.oled_get_glyph.minus)
                  000057c9    00000005     oled.o (.rodata.oled_get_glyph.nine)
                  000057ce    00000005     oled.o (.rodata.oled_get_glyph.one)
                  000057d3    00000005     oled.o (.rodata.oled_get_glyph.seven)
                  000057d8    00000005     oled.o (.rodata.oled_get_glyph.six)
                  000057dd    00000005     oled.o (.rodata.oled_get_glyph.space)
                  000057e2    00000005     oled.o (.rodata.oled_get_glyph.three)
                  000057e7    00000005     oled.o (.rodata.oled_get_glyph.two)
                  000057ec    00000005     oled.o (.rodata.oled_get_glyph.zero)
                  000057f1    00000005     oled_ui.o (.rodata.str1.1108652269057166745.1)
                  000057f6    00000005     oled_ui.o (.rodata.str1.13882251010780863896.1)
                  000057fb    00000005     oled_ui.o (.rodata.str1.14134189893851348960.1)
                  00005800    00000005     oled_ui.o (.rodata.str1.15613891207764622616.1)
                  00005805    00000005     oled_ui.o (.rodata.str1.15802367878353263018.1)
                  0000580a    00000005     oled_ui.o (.rodata.str1.15917848551323629232.1)
                  0000580f    00000005     car_controller.o (.rodata.str1.1652194605229746967.1)
                  00005814    00000005     oled_ui.o (.rodata.str1.17274519358952562110.1)
                  00005819    00000005     oled_ui.o (.rodata.str1.2522137003438374266.1)
                  0000581e    00000005     oled_ui.o (.rodata.str1.270145429241168923.1)
                  00005823    00000005     car_controller.o (.rodata.str1.4164979912472006574.1)
                  00005828    00000005     oled_ui.o (.rodata.str1.4402311448527872260.1)
                  0000582d    00000005     oled_ui.o (.rodata.str1.4581472623415959594.1)
                  00005832    00000005     oled_ui.o (.rodata.str1.4581686099848791648.1)
                  00005837    00000005     menu.o (.rodata.str1.4862307748908978627.1)
                  0000583c    00000005     oled_ui.o (.rodata.str1.7774807581888385879.1)
                  00005841    00000005     oled_ui.o (.rodata.str1.8426569189266129334.1)
                  00005846    00000005     oled_ui.o (.rodata.str1.8460525935980491721.1)
                  0000584b    00000005     oled_ui.o (.rodata.str1.8693388333057100694.1)
                  00005850    00000005     car_controller.o (.rodata.str1.9234375891235759983.1)
                  00005855    00000005     oled_ui.o (.rodata.str1.9295666102996717355.1)
                  0000585a    00000005     car_controller.o (.rodata.str1.9981487771679760427.1)
                  0000585f    00000004     oled_ui.o (.rodata.str1.1019225241002246410.1)
                  00005863    00000004     oled_ui.o (.rodata.str1.10416366799939242409.1)
                  00005867    00000004     menu.o (.rodata.str1.12110183915172842339.1)
                  0000586b    00000004     car_controller.o (.rodata.str1.12442237994239546032.1)
                  0000586f    00000004     oled_ui.o (.rodata.str1.12617122458660443890.1)
                  00005873    00000004     oled_ui.o (.rodata.str1.130772507669342127.1)
                  00005877    00000004     menu.o (.rodata.str1.13124720451672825294.1)
                  0000587b    00000004     oled_ui.o (.rodata.str1.13244290092665904221.1)
                  0000587f    00000004     oled_ui.o (.rodata.str1.13567883086814673087.1)
                  00005883    00000004     menu.o (.rodata.str1.14098755746347272832.1)
                  00005887    00000004     oled_ui.o (.rodata.str1.15577080202403550426.1)
                  0000588b    00000004     oled_ui.o (.rodata.str1.15817398807211891688.1)
                  0000588f    00000004     oled_ui.o (.rodata.str1.15859922799842739878.1)
                  00005893    00000004     oled_ui.o (.rodata.str1.16411631209783952401.1)
                  00005897    00000004     oled_ui.o (.rodata.str1.16526439943277383452.1)
                  0000589b    00000004     oled_ui.o (.rodata.str1.16849766574302683489.1)
                  0000589f    00000004     oled_ui.o (.rodata.str1.16939060351352778619.1)
                  000058a3    00000004     menu.o (.rodata.str1.17041139162815566052.1)
                  000058a7    00000004     car_controller.o (.rodata.str1.17172356789460551389.1)
                  000058ab    00000004     oled_ui.o (.rodata.str1.17464849429964608858.1)
                  000058af    00000004     oled_ui.o (.rodata.str1.17884296644359297425.1)
                  000058b3    00000004     car_controller.o (.rodata.str1.18191498530309206443.1)
                  000058b7    00000004     oled_ui.o (.rodata.str1.18379317056176403938.1)
                  000058bb    00000004     oled_ui.o (.rodata.str1.2308938766145545715.1)
                  000058bf    00000004     oled_ui.o (.rodata.str1.3025253791635144717.1)
                  000058c3    00000004     oled_ui.o (.rodata.str1.3455423528827705371.1)
                  000058c7    00000004     oled_ui.o (.rodata.str1.3702290527496711532.1)
                  000058cb    00000004     oled_ui.o (.rodata.str1.4610220316623841660.1)
                  000058cf    00000004     oled_ui.o (.rodata.str1.5853739094453432564.1)
                  000058d3    00000004     oled_ui.o (.rodata.str1.6806727740681590176.1)
                  000058d7    00000004     car_controller.o (.rodata.str1.702403006289709404.1)
                  000058db    00000004     oled_ui.o (.rodata.str1.7185587941321649510.1)
                  000058df    00000004     oled_ui.o (.rodata.str1.7219546930854689545.1)
                  000058e3    00000004     oled_ui.o (.rodata.str1.7419768602719733415.1)
                  000058e7    00000004     oled_ui.o (.rodata.str1.8236579331345056500.1)
                  000058eb    00000004     oled_ui.o (.rodata.str1.8403269972884532600.1)
                  000058ef    00000004     oled_ui.o (.rodata.str1.8783421139296713095.1)
                  000058f3    00000004     oled_ui.o (.rodata.str1.9159586779647977165.1)
                  000058f7    00000004     menu.o (.rodata.str1.9546740394641817443.1)
                  000058fb    00000004     oled_ui.o (.rodata.str1.967006512144173535.1)
                  000058ff    00000003     oled_ui.o (.rodata.str1.11232419324784801130.1)
                  00005902    00000003     oled_ui.o (.rodata.str1.13790669171379415506.1)
                  00005905    00000003     oled_ui.o (.rodata.str1.14556837007311414654.1)
                  00005908    00000003     menu.o (.rodata.str1.16312125044762562515.1)
                  0000590b    00000003     oled_ui.o (.rodata.str1.16931641404301806744.1)
                  0000590e    00000003     oled_ui.o (.rodata.str1.17812014771544466701.1)
                  00005911    00000003     oled_ui.o (.rodata.str1.3407221357956504873.1)
                  00005914    00000003     menu.o (.rodata.str1.4646809750356241979.1)
                  00005917    00000003     menu.o (.rodata.str1.6857549598058878762.1)
                  0000591a    00000003     oled_ui.o (.rodata.str1.9854382722193312766.1)
                  0000591d    00000002     obstacle_scanner.o (.rodata.str1.11939683097049013124.1)
                  0000591f    00000002     obstacle_scanner.o (.rodata.str1.14577498031971741607.1)
                  00005921    00000002     obstacle_scanner.o (.rodata.str1.5067209812142241413.1)
                  00005923    00000002     obstacle_scanner.o (.rodata.str1.8397422230016258530.1)
                  00005925    00000002     obstacle_scanner.o (.rodata.str1.972179551522492159.1)
                  00005927    00000001     --HOLE-- [fill = 0]

.init_array 
*          0    00000000    00000000     UNINITIALIZED

.binit     0    00000000    00000000     

.bss       0    20200000    00000176     UNINITIALIZED
                  20200000    00000050     (.common:g_appConfig)
                  20200050    00000038     (.common:g_appRuntime)
                  20200088    00000028     (.common:g_imuRuntime)
                  202000b0    00000020     mission_manager.o (.bss.g_missionRuntime)
                  202000d0    00000014     motion_action.o (.bss.g_motionActionRuntime)
                  202000e4    00000014     (.common:g_headingRuntime)
                  202000f8    00000010     obstacle_scanner.o (.bss.g_obstacleScanFeedback)
                  20200108    0000000e     car_controller.o (.bss.g_carControllerFeedback)
                  20200116    00000002     ultrasonic.o (.bss.g_echoTicks)
                  20200118    0000000e     ultrasonic.o (.bss.g_ultrasonicFeedback)
                  20200126    00000008     obstacle_monitor.o (.bss.g_obstacleFeedback)
                  2020012e    00000006     ultrasonic.o (.bss.g_distanceSamples)
                  20200134    00000006     key.o (.bss.g_key1)
                  2020013a    00000006     key.o (.bss.g_key2)
                  20200140    00000006     key.o (.bss.g_key3)
                  20200146    00000002     obstacle_scanner.o (.bss.g_scanWaitTicks)
                  20200148    00000004     encoder.o (.bss.g_motorAPulses)
                  2020014c    00000004     encoder.o (.bss.g_motorBPulses)
                  20200150    00000004     servo.o (.bss.g_servoFeedback)
                  20200154    00000002     servo.o (.bss.g_servoPwmPhase)
                  20200156    00000002     ultrasonic.o (.bss.g_stateTicks)
                  20200158    00000002     (.common:g_trackError)
                  2020015a    00000001     oled_ui.o (.bss.OledUi_Update_20ms.refreshDivider)
                  2020015b    00000001     empty.o (.bss.SysTick_Handler.controlMsCount)
                  2020015c    00000001     empty.o (.bss.SysTick_Handler.tick100usCount)
                  2020015d    00000001     ultrasonic.o (.bss.Ultrasonic_Update_20ms.triggerDivider)
                  2020015e    00000001     empty.o (.bss.g_appUpdateDue)
                  2020015f    00000001     car_state.o (.bss.g_carState)
                  20200160    00000001     obstacle_monitor.o (.bss.g_centerSettleTicks)
                  20200161    00000001     ultrasonic.o (.bss.g_distanceSampleCount)
                  20200162    00000001     ultrasonic.o (.bss.g_distanceSampleIndex)
                  20200163    00000001     motor.o (.bss.g_motorADutyLevel)
                  20200164    00000001     motor.o (.bss.g_motorBDutyLevel)
                  20200165    00000001     obstacle_safety.o (.bss.g_obstacleSafetyHolding)
                  20200166    00000001     oled.o (.bss.g_oledColumn)
                  20200167    00000001     menu.o (.bss.g_oledPage)
                  20200168    00000001     menu.o (.bss.g_paramItem)
                  20200169    00000001     key.o (.bss.g_pendingEvent)
                  2020016a    00000001     motor.o (.bss.g_pwmPhase)
                  2020016b    00000001     car_controller.o (.bss.g_safetyHold)
                  2020016c    00000001     ultrasonic.o (.bss.g_triggerRequest)
                  2020016d    00000001     ultrasonic.o (.bss.g_ultrasonicState)
                  2020016e    00000001     (.common:g_carStateDebug)
                  2020016f    00000001     (.common:g_keyEvent)
                  20200170    00000001     (.common:g_oledPageDebug)
                  20200171    00000001     (.common:g_paramItemDebug)
                  20200172    00000001     (.common:g_trackBlackCount)
                  20200173    00000001     (.common:g_trackModeDebug)
                  20200174    00000001     (.common:g_trackRaw)
                  20200175    00000001     (.common:g_trackTurnDebug)

.data      0    20200176    00000001     UNINITIALIZED
                  20200176    00000001     car_controller.o (.data.g_followTurnPolicy)

.stack     0    20207e00    00000200     UNINITIALIZED
                  20207e00    00000004     libc.a : boot_cortex_m.c.obj (.stack)
                  20207e04    000001fc     --HOLE--

__llvm_prf_cnts 
*          0    20200000    00000000     UNINITIALIZED

__llvm_prf_bits 
*          0    20200000    00000000     UNINITIALIZED

MODULE SUMMARY

       Module                         code    ro data   rw data
       ------                         ----    -------   -------
    .\
       car_controller.o               3208    64        72     
       imu.o                          3304    0         40     
       oled.o                         2088    401       1      
       oled_ui.o                      1660    409       1      
       mission_library.o              174     1617      0      
       mission_manager.o              1184    0         32     
       motion_action.o                896     0         20     
       app_config.o                   704     0         80     
       menu.o                         716     66        2      
       ultrasonic.o                   636     0         29     
       obstacle_scanner.o             584     26        18     
       heading_control.o              468     0         20     
       key.o                          436     0         19     
       track_sensor.o                 372     0         0      
       motor.o                        356     0         3      
       app.o                          302     0         10     
       ti_msp_dl_config.o             300     0         0      
       obstacle_monitor.o             192     0         9      
       empty.o                        196     0         3      
       startup_mspm0g350x_ticlang.o   6       192       0      
       servo.o                        176     0         6      
       encoder.o                      144     0         8      
       obstacle_safety.o              124     0         1      
       car_state.o                    36      0         1      
    +--+------------------------------+-------+---------+---------+
       Total:                         18262   2775      375    
                                                               
    C:/TI/mspm0_sdk_2_05_01_00/source/ti/driverlib/lib/ticlang/m0p/mspm0g1x0x_g3x0x/driverlib.a
       dl_common.o                    10      0         0      
    +--+------------------------------+-------+---------+---------+
       Total:                         10      0         0      
                                                               
    D:\TI\CCS\ccs\tools\compiler\ti-cgt-armllvm_4.0.4.LTS\lib\armv6m-ti-none-eabi/c/libc.a
       memcpy16.S.obj                 154     0         0      
       copy_decompress_lzss.c.obj     124     0         0      
       autoinit.c.obj                 60      0         0      
       boot_cortex_m.c.obj            40      0         0      
       copy_zero_init.c.obj           22      0         0      
       copy_decompress_none.c.obj     18      0         0      
       exit.c.obj                     6       0         0      
       pre_init.c.obj                 4       0         0      
    +--+------------------------------+-------+---------+---------+
       Total:                         428     0         0      
                                                               
    D:\TI\CCS\ccs\tools\compiler\ti-cgt-armllvm_4.0.4.LTS\lib\armv6m-ti-none-eabi/c/libsysbm.a
       hostexit.c.obj                 4       0         0      
    +--+------------------------------+-------+---------+---------+
       Total:                         4       0         0      
                                                               
    D:\TI\CCS\ccs\tools\compiler\ti-cgt-armllvm_4.0.4.LTS\lib\armv6m-ti-none-eabi/libclang_rt.builtins.a
       addsf3.S.obj                   216     0         0      
       udivmoddi4.S.obj               162     0         0      
       mulsf3.S.obj                   140     0         0      
       divsf3.S.obj                   130     0         0      
       comparesf2.S.obj               118     0         0      
       aeabi_fcmp.S.obj               98      0         0      
       aeabi_idivmod.S.obj            86      0         0      
       aeabi_uidivmod.S.obj           64      0         0      
       divmoddi4.c.obj                62      0         0      
       floatsisf.S.obj                60      0         0      
       muldsi3.S.obj                  58      0         0      
       fixsfsi.S.obj                  56      0         0      
       ashldi3.S.obj                  30      0         0      
       aeabi_ldivmod.S.obj            20      0         0      
       aeabi_memcpy.S.obj             8       0         0      
       aeabi_div0.c.obj               4       0         0      
    +--+------------------------------+-------+---------+---------+
       Total:                         1312    0         0      
                                                               
       Stack:                         0       0         512    
       Linker Generated:              0       41        0      
    +--+------------------------------+-------+---------+---------+
       Grand Total:                   20016   2816      887    


LINKER GENERATED COPY TABLES

__TI_cinit_table @ 00005944 records: 2, size/record: 8, table size: 16
	.bss: load addr=00005934, load size=00000008 bytes, run addr=20200000, run size=00000176 bytes, compression=zero_init
	.data: load addr=0000593c, load size=00000005 bytes, run addr=20200176, run size=00000001 bytes, compression=lzss


LINKER GENERATED HANDLER TABLE

__TI_handler_table @ 00005928 records: 3, size/record: 4, table size: 12
	index: 0, handler: __TI_decompress_lzss
	index: 1, handler: __TI_decompress_none
	index: 2, handler: __TI_zero_init


GLOBAL SYMBOLS: SORTED ALPHABETICALLY BY Name 

address   name                                  
-------   ----                                  
0000366f  ADC0_IRQHandler                       
0000366f  ADC1_IRQHandler                       
0000366f  AES_IRQHandler                        
00003671  AppConfig_InitDefault                 
00001869  AppConfig_LimitAll                    
00004309  App_Init                              
000031f5  App_Update_20ms                       
00004efa  C$$EXIT                               
0000366f  CANFD0_IRQHandler                     
00004e9d  CarController_GetFeedback             
00004de5  CarController_GetRunMode              
00003c25  CarController_Init                    
00003ca1  CarController_ResetRuntime            
00004c55  CarController_RunModeToString         
00004465  CarController_SetSafetyHold           
00003975  CarController_StartDriveHeading       
00003d1d  CarController_StartFollowLine         
00003845  CarController_StartSeekLine           
00003f01  CarController_StartTurnLeft90         
00003e8d  CarController_StartTurnRight90        
00003a95  CarController_StartTurnToYawRelative  
00004b45  CarController_Stop                    
000000c1  CarController_Update_20ms             
00004df1  CarState_Get                          
00004dfd  CarState_Init                         
00004e09  CarState_Set                          
0000366f  DAC0_IRQHandler                       
00004e75  DL_Common_delayCycles                 
0000366f  DMA_IRQHandler                        
0000366f  Default_Handler                       
00003fe1  Encoder_HandleGpioInterrupt           
00004b21  Encoder_Reset                         
0000366f  GROUP0_IRQHandler                     
00004cfd  GROUP1_IRQHandler                     
00004efb  HOSTexit                              
0000366f  HardFault_Handler                     
00004d11  HeadingControl_Enable                 
00004ea5  HeadingControl_GetRuntime             
00004d25  HeadingControl_Init                   
00004c6d  HeadingControl_LockCurrentYaw         
00004d39  HeadingControl_Reset                  
00004c85  HeadingControl_SetTargetYaw           
00002735  HeadingControl_Update                 
0000366f  I2C0_IRQHandler                       
0000366f  I2C1_IRQHandler                       
00001a8d  Imu_CalibrateGyroBias                 
00004e15  Imu_GetCorrectedGyroZDps              
00004ead  Imu_GetRuntime                        
00004e21  Imu_GetYaw                            
00001115  Imu_Init                              
00004be5  Imu_IsReady                           
00004e2d  Imu_ResetYaw                          
00002b11  Imu_Update                            
00004dc5  Key_GetEvent                          
00004965  Key_Init                              
000025c1  Key_Update_20ms                       
00004e39  Menu_GetPage                          
00004e45  Menu_GetParamItem                     
000041ed  Menu_GetParamValue                    
00001641  Menu_HandleKeyEvent                   
00004d4d  Menu_Init                             
00004c9d  Menu_ParamItemToString                
00004d61  MissionLibrary_FindById               
00004d75  MissionLibrary_GetByIndex             
00004eff  MissionLibrary_GetCount               
00003b1d  MissionLibrary_Validate               
00004995  MissionManager_Cancel                 
00004eb5  MissionManager_GetMissionCount        
00004ebd  MissionManager_GetRuntime             
00004d89  MissionManager_GetSelectedMissionId   
000040b9  MissionManager_GetSelectedMissionIndex
00004555  MissionManager_Init                   
00004b65  MissionManager_Pause                  
000049c5  MissionManager_Reset                  
00004b85  MissionManager_Resume                 
00002e69  MissionManager_SelectNext             
00003045  MissionManager_SelectPrevious         
00004e51  MissionManager_SetExternalHold        
00004625  MissionManager_Start                  
00002d71  MissionManager_Update_20ms            
00004cb5  MotionAction_Cancel                   
00004ec5  MotionAction_GetRuntime               
00004ccd  MotionAction_Init                     
00002895  MotionAction_Start                    
00001ca1  MotionAction_Update_20ms              
0000488d  Motor_Init                            
000044b5  Motor_PwmTick100us                    
0000346d  Motor_SetSpeed                        
00004a25  Motor_Stop                            
0000366f  NMI_Handler                           
000013ed  OLED_Clear                            
000032c9  OLED_Init                             
0000424d  OLED_PrintBinary7                     
0000339d  OLED_PrintChar                        
000029d5  OLED_PrintInt16                       
00004931  OLED_PrintString                      
000048fd  OLED_SetCursor                        
00004ecd  ObstacleMonitor_GetFeedback           
00004c01  ObstacleMonitor_Init                  
0000370d  ObstacleMonitor_Update_20ms           
00004c1d  ObstacleSafety_Init                   
00004e5d  ObstacleSafety_IsHolding              
000043bd  ObstacleSafety_Update_20ms            
00004c39  ObstacleScanner_DirectionToString     
00004ed5  ObstacleScanner_GetFeedback           
000049f5  ObstacleScanner_Init                  
00001ea9  ObstacleScanner_Update_20ms           
00004e69  OledUi_Init                           
000007b5  OledUi_Update_20ms                    
0000366f  PendSV_Handler                        
0000366f  RTC_IRQHandler                        
00004f03  Reset_Handler                         
0000366f  SPI0_IRQHandler                       
0000366f  SPI1_IRQHandler                       
0000366f  SVC_Handler                           
0000351d  SYSCFG_DL_GPIO_init                   
00004665  SYSCFG_DL_SYSCTL_init                 
00004dd5  SYSCFG_DL_init                        
00004a51  SYSCFG_DL_initPower                   
00004edd  Servo_GetFeedback                     
00004aa9  Servo_Init                            
00004725  Servo_SetAngleDeg                     
0000459d  Servo_Tick100us                       
000045e1  SysTick_Handler                       
0000366f  TIMA0_IRQHandler                      
0000366f  TIMA1_IRQHandler                      
0000366f  TIMG0_IRQHandler                      
0000366f  TIMG12_IRQHandler                     
0000366f  TIMG6_IRQHandler                      
0000366f  TIMG7_IRQHandler                      
0000366f  TIMG8_IRQHandler                      
00004a7d  TrackSensor_CountBlack                
00003f71  TrackSensor_DetectTurn                
00004121  TrackSensor_GetErrorFromRaw           
00003843  TrackSensor_Init                      
00004e7f  TrackSensor_IsCenterDetected          
00004e89  TrackSensor_IsLineDetected            
00004e93  TrackSensor_IsLineLost                
00004411  TrackSensor_ReadRaw                   
0000366f  UART0_IRQHandler                      
0000366f  UART1_IRQHandler                      
0000366f  UART2_IRQHandler                      
0000366f  UART3_IRQHandler                      
00004ee5  Ultrasonic_GetFeedback                
00004505  Ultrasonic_Init                       
00004ad1  Ultrasonic_ResetFilter                
00002421  Ultrasonic_Tick100us                  
000042ad  Ultrasonic_Update_20ms                
20208000  __STACK_END                           
00000200  __STACK_SIZE                          
00000000  __TI_ATRegion0_region_sz              
00000000  __TI_ATRegion0_src_addr               
00000000  __TI_ATRegion0_trg_addr               
00000000  __TI_ATRegion1_region_sz              
00000000  __TI_ATRegion1_src_addr               
00000000  __TI_ATRegion1_trg_addr               
00000000  __TI_ATRegion2_region_sz              
00000000  __TI_ATRegion2_src_addr               
00000000  __TI_ATRegion2_trg_addr               
00005944  __TI_CINIT_Base                       
00005954  __TI_CINIT_Limit                      
00005954  __TI_CINIT_Warm                       
00005928  __TI_Handler_Table_Base               
00005934  __TI_Handler_Table_Limit              
000047d9  __TI_auto_init_nobinit_nopinit        
00003d99  __TI_decompress_lzss                  
00004db1  __TI_decompress_none                  
ffffffff  __TI_pprof_out_hndl                   
ffffffff  __TI_prof_data_size                   
ffffffff  __TI_prof_data_start                  
00000000  __TI_static_base__                    
00004ce5  __TI_zero_init_nomemset               
00003127  __addsf3                              
000048c5  __aeabi_f2iz                          
00003127  __aeabi_fadd                          
00004189  __aeabi_fcmpeq                        
000041c5  __aeabi_fcmpge                        
000041d9  __aeabi_fcmpgt                        
000041b1  __aeabi_fcmple                        
0000419d  __aeabi_fcmplt                        
00003ba1  __aeabi_fdiv                          
00003a09  __aeabi_fmul                          
0000311d  __aeabi_fsub                          
00004761  __aeabi_i2f                           
00004365  __aeabi_idiv                          
00003b9f  __aeabi_idiv0                         
00004365  __aeabi_idivmod                       
00003c23  __aeabi_ldiv0                         
00004d9d  __aeabi_ldivmod                       
00004bc5  __aeabi_llsl                          
00004eed  __aeabi_memcpy                        
00004eed  __aeabi_memcpy4                       
00004eed  __aeabi_memcpy8                       
000046a5  __aeabi_uidiv                         
000046a5  __aeabi_uidivmod                      
00004bc5  __ashldi3                             
ffffffff  __binit__                             
00004815  __cmpsf2                              
000046e5  __divmoddi4                           
00003ba1  __divsf3                              
00004815  __eqsf2                               
000048c5  __fixsfsi                             
00004761  __floatsisf                           
0000479d  __gesf2                               
0000479d  __gtsf2                               
00004815  __lesf2                               
00004815  __ltsf2                               
UNDEFED   __mpu_init                            
00004851  __muldsi3                             
00003a09  __mulsf3                              
00004815  __nesf2                               
20207e00  __stack                               
20200000  __start___llvm_prf_bits               
20200000  __start___llvm_prf_cnts               
20200000  __stop___llvm_prf_bits                
20200000  __stop___llvm_prf_cnts                
0000311d  __subsf3                              
000035cd  __udivmoddi4                          
00004af9  _c_int00_noargs                       
UNDEFED   _system_post_cinit                    
00004f07  _system_pre_init                      
00004ef5  abort                                 
ffffffff  binit                                 
20200000  g_appConfig                           
20200050  g_appRuntime                          
2020016e  g_carStateDebug                       
202000e4  g_headingRuntime                      
20200088  g_imuRuntime                          
2020016f  g_keyEvent                            
20200170  g_oledPageDebug                       
20200171  g_paramItemDebug                      
20200172  g_trackBlackCount                     
20200158  g_trackError                          
20200173  g_trackModeDebug                      
20200174  g_trackRaw                            
20200175  g_trackTurnDebug                      
00000000  interruptVectors                      
0000404d  main                                  
000037a9  memcpy                                


GLOBAL SYMBOLS: SORTED BY Symbol Address 

address   name                                  
-------   ----                                  
00000000  __TI_ATRegion0_region_sz              
00000000  __TI_ATRegion0_src_addr               
00000000  __TI_ATRegion0_trg_addr               
00000000  __TI_ATRegion1_region_sz              
00000000  __TI_ATRegion1_src_addr               
00000000  __TI_ATRegion1_trg_addr               
00000000  __TI_ATRegion2_region_sz              
00000000  __TI_ATRegion2_src_addr               
00000000  __TI_ATRegion2_trg_addr               
00000000  __TI_static_base__                    
00000000  interruptVectors                      
000000c1  CarController_Update_20ms             
00000200  __STACK_SIZE                          
000007b5  OledUi_Update_20ms                    
00001115  Imu_Init                              
000013ed  OLED_Clear                            
00001641  Menu_HandleKeyEvent                   
00001869  AppConfig_LimitAll                    
00001a8d  Imu_CalibrateGyroBias                 
00001ca1  MotionAction_Update_20ms              
00001ea9  ObstacleScanner_Update_20ms           
00002421  Ultrasonic_Tick100us                  
000025c1  Key_Update_20ms                       
00002735  HeadingControl_Update                 
00002895  MotionAction_Start                    
000029d5  OLED_PrintInt16                       
00002b11  Imu_Update                            
00002d71  MissionManager_Update_20ms            
00002e69  MissionManager_SelectNext             
00003045  MissionManager_SelectPrevious         
0000311d  __aeabi_fsub                          
0000311d  __subsf3                              
00003127  __addsf3                              
00003127  __aeabi_fadd                          
000031f5  App_Update_20ms                       
000032c9  OLED_Init                             
0000339d  OLED_PrintChar                        
0000346d  Motor_SetSpeed                        
0000351d  SYSCFG_DL_GPIO_init                   
000035cd  __udivmoddi4                          
0000366f  ADC0_IRQHandler                       
0000366f  ADC1_IRQHandler                       
0000366f  AES_IRQHandler                        
0000366f  CANFD0_IRQHandler                     
0000366f  DAC0_IRQHandler                       
0000366f  DMA_IRQHandler                        
0000366f  Default_Handler                       
0000366f  GROUP0_IRQHandler                     
0000366f  HardFault_Handler                     
0000366f  I2C0_IRQHandler                       
0000366f  I2C1_IRQHandler                       
0000366f  NMI_Handler                           
0000366f  PendSV_Handler                        
0000366f  RTC_IRQHandler                        
0000366f  SPI0_IRQHandler                       
0000366f  SPI1_IRQHandler                       
0000366f  SVC_Handler                           
0000366f  TIMA0_IRQHandler                      
0000366f  TIMA1_IRQHandler                      
0000366f  TIMG0_IRQHandler                      
0000366f  TIMG12_IRQHandler                     
0000366f  TIMG6_IRQHandler                      
0000366f  TIMG7_IRQHandler                      
0000366f  TIMG8_IRQHandler                      
0000366f  UART0_IRQHandler                      
0000366f  UART1_IRQHandler                      
0000366f  UART2_IRQHandler                      
0000366f  UART3_IRQHandler                      
00003671  AppConfig_InitDefault                 
0000370d  ObstacleMonitor_Update_20ms           
000037a9  memcpy                                
00003843  TrackSensor_Init                      
00003845  CarController_StartSeekLine           
00003975  CarController_StartDriveHeading       
00003a09  __aeabi_fmul                          
00003a09  __mulsf3                              
00003a95  CarController_StartTurnToYawRelative  
00003b1d  MissionLibrary_Validate               
00003b9f  __aeabi_idiv0                         
00003ba1  __aeabi_fdiv                          
00003ba1  __divsf3                              
00003c23  __aeabi_ldiv0                         
00003c25  CarController_Init                    
00003ca1  CarController_ResetRuntime            
00003d1d  CarController_StartFollowLine         
00003d99  __TI_decompress_lzss                  
00003e8d  CarController_StartTurnRight90        
00003f01  CarController_StartTurnLeft90         
00003f71  TrackSensor_DetectTurn                
00003fe1  Encoder_HandleGpioInterrupt           
0000404d  main                                  
000040b9  MissionManager_GetSelectedMissionIndex
00004121  TrackSensor_GetErrorFromRaw           
00004189  __aeabi_fcmpeq                        
0000419d  __aeabi_fcmplt                        
000041b1  __aeabi_fcmple                        
000041c5  __aeabi_fcmpge                        
000041d9  __aeabi_fcmpgt                        
000041ed  Menu_GetParamValue                    
0000424d  OLED_PrintBinary7                     
000042ad  Ultrasonic_Update_20ms                
00004309  App_Init                              
00004365  __aeabi_idiv                          
00004365  __aeabi_idivmod                       
000043bd  ObstacleSafety_Update_20ms            
00004411  TrackSensor_ReadRaw                   
00004465  CarController_SetSafetyHold           
000044b5  Motor_PwmTick100us                    
00004505  Ultrasonic_Init                       
00004555  MissionManager_Init                   
0000459d  Servo_Tick100us                       
000045e1  SysTick_Handler                       
00004625  MissionManager_Start                  
00004665  SYSCFG_DL_SYSCTL_init                 
000046a5  __aeabi_uidiv                         
000046a5  __aeabi_uidivmod                      
000046e5  __divmoddi4                           
00004725  Servo_SetAngleDeg                     
00004761  __aeabi_i2f                           
00004761  __floatsisf                           
0000479d  __gesf2                               
0000479d  __gtsf2                               
000047d9  __TI_auto_init_nobinit_nopinit        
00004815  __cmpsf2                              
00004815  __eqsf2                               
00004815  __lesf2                               
00004815  __ltsf2                               
00004815  __nesf2                               
00004851  __muldsi3                             
0000488d  Motor_Init                            
000048c5  __aeabi_f2iz                          
000048c5  __fixsfsi                             
000048fd  OLED_SetCursor                        
00004931  OLED_PrintString                      
00004965  Key_Init                              
00004995  MissionManager_Cancel                 
000049c5  MissionManager_Reset                  
000049f5  ObstacleScanner_Init                  
00004a25  Motor_Stop                            
00004a51  SYSCFG_DL_initPower                   
00004a7d  TrackSensor_CountBlack                
00004aa9  Servo_Init                            
00004ad1  Ultrasonic_ResetFilter                
00004af9  _c_int00_noargs                       
00004b21  Encoder_Reset                         
00004b45  CarController_Stop                    
00004b65  MissionManager_Pause                  
00004b85  MissionManager_Resume                 
00004bc5  __aeabi_llsl                          
00004bc5  __ashldi3                             
00004be5  Imu_IsReady                           
00004c01  ObstacleMonitor_Init                  
00004c1d  ObstacleSafety_Init                   
00004c39  ObstacleScanner_DirectionToString     
00004c55  CarController_RunModeToString         
00004c6d  HeadingControl_LockCurrentYaw         
00004c85  HeadingControl_SetTargetYaw           
00004c9d  Menu_ParamItemToString                
00004cb5  MotionAction_Cancel                   
00004ccd  MotionAction_Init                     
00004ce5  __TI_zero_init_nomemset               
00004cfd  GROUP1_IRQHandler                     
00004d11  HeadingControl_Enable                 
00004d25  HeadingControl_Init                   
00004d39  HeadingControl_Reset                  
00004d4d  Menu_Init                             
00004d61  MissionLibrary_FindById               
00004d75  MissionLibrary_GetByIndex             
00004d89  MissionManager_GetSelectedMissionId   
00004d9d  __aeabi_ldivmod                       
00004db1  __TI_decompress_none                  
00004dc5  Key_GetEvent                          
00004dd5  SYSCFG_DL_init                        
00004de5  CarController_GetRunMode              
00004df1  CarState_Get                          
00004dfd  CarState_Init                         
00004e09  CarState_Set                          
00004e15  Imu_GetCorrectedGyroZDps              
00004e21  Imu_GetYaw                            
00004e2d  Imu_ResetYaw                          
00004e39  Menu_GetPage                          
00004e45  Menu_GetParamItem                     
00004e51  MissionManager_SetExternalHold        
00004e5d  ObstacleSafety_IsHolding              
00004e69  OledUi_Init                           
00004e75  DL_Common_delayCycles                 
00004e7f  TrackSensor_IsCenterDetected          
00004e89  TrackSensor_IsLineDetected            
00004e93  TrackSensor_IsLineLost                
00004e9d  CarController_GetFeedback             
00004ea5  HeadingControl_GetRuntime             
00004ead  Imu_GetRuntime                        
00004eb5  MissionManager_GetMissionCount        
00004ebd  MissionManager_GetRuntime             
00004ec5  MotionAction_GetRuntime               
00004ecd  ObstacleMonitor_GetFeedback           
00004ed5  ObstacleScanner_GetFeedback           
00004edd  Servo_GetFeedback                     
00004ee5  Ultrasonic_GetFeedback                
00004eed  __aeabi_memcpy                        
00004eed  __aeabi_memcpy4                       
00004eed  __aeabi_memcpy8                       
00004ef5  abort                                 
00004efa  C$$EXIT                               
00004efb  HOSTexit                              
00004eff  MissionLibrary_GetCount               
00004f03  Reset_Handler                         
00004f07  _system_pre_init                      
00005928  __TI_Handler_Table_Base               
00005934  __TI_Handler_Table_Limit              
00005944  __TI_CINIT_Base                       
00005954  __TI_CINIT_Limit                      
00005954  __TI_CINIT_Warm                       
20200000  __start___llvm_prf_bits               
20200000  __start___llvm_prf_cnts               
20200000  __stop___llvm_prf_bits                
20200000  __stop___llvm_prf_cnts                
20200000  g_appConfig                           
20200050  g_appRuntime                          
20200088  g_imuRuntime                          
202000e4  g_headingRuntime                      
20200158  g_trackError                          
2020016e  g_carStateDebug                       
2020016f  g_keyEvent                            
20200170  g_oledPageDebug                       
20200171  g_paramItemDebug                      
20200172  g_trackBlackCount                     
20200173  g_trackModeDebug                      
20200174  g_trackRaw                            
20200175  g_trackTurnDebug                      
20207e00  __stack                               
20208000  __STACK_END                           
ffffffff  __TI_pprof_out_hndl                   
ffffffff  __TI_prof_data_size                   
ffffffff  __TI_prof_data_start                  
ffffffff  __binit__                             
ffffffff  binit                                 
UNDEFED   __mpu_init                            
UNDEFED   _system_post_cinit                    

[239 symbols]
